target datalayout = "e-m:e-p270:32:32-p271:32:32-p272:64:64-i64:64-i128:128-f80:128-n8:16:32:64-S128"
target triple = "x86_64-pc-linux-gnu"

%struct._zend_internal_function = type { i8, [3 x i8], i32, ptr, ptr, ptr, i32, i32, ptr, ptr, ptr, ptr, i32, ptr, ptr, ptr, [6 x ptr] }

@xmlreader_open_fn = internal global %struct._zend_internal_function zeroinitializer, align 8
@xmlreader_xml_fn = internal global %struct._zend_internal_function zeroinitializer, align 8
@prev_zend_post_startup_cb = internal global ptr null, align 8
@zend_observer_fcall_op_array_extension = external global i32, align 4

; Function Attrs: nounwind uwtable
define internal i32 @xmlreader_fixup_temporaries() #0 {
  %1 = alloca i32, align 4
  %2 = load i32, ptr @zend_observer_fcall_op_array_extension, align 4
  %3 = icmp ne i32 %2, -1
  br i1 %3, label %4, label %9

4:                                                ; preds = %0
  %5 = load i32, ptr getelementptr inbounds (%struct._zend_internal_function, ptr @xmlreader_open_fn, i32 0, i32 12), align 8
  %6 = add i32 %5, 1
  store i32 %6, ptr getelementptr inbounds (%struct._zend_internal_function, ptr @xmlreader_open_fn, i32 0, i32 12), align 8
  %7 = load i32, ptr getelementptr inbounds (%struct._zend_internal_function, ptr @xmlreader_xml_fn, i32 0, i32 12), align 8
  %8 = add i32 %7, 1
  store i32 %8, ptr getelementptr inbounds (%struct._zend_internal_function, ptr @xmlreader_xml_fn, i32 0, i32 12), align 8
  br label %9

9:                                                ; preds = %4, %0
  %10 = load ptr, ptr @prev_zend_post_startup_cb, align 8
  %11 = icmp ne ptr %10, null
  br i1 %11, label %12, label %15

12:                                               ; preds = %9
  %13 = load ptr, ptr @prev_zend_post_startup_cb, align 8
  %14 = call i32 %13()
  store i32 %14, ptr %1, align 4
  br label %16

15:                                               ; preds = %9
  store i32 0, ptr %1, align 4
  br label %16

16:                                               ; preds = %15, %12
  %17 = load i32, ptr %1, align 4
  ret i32 %17
}