; Function Attrs: nounwind uwtable
define internal i32 @xmlreader_fixup_temporaries() #0 {
  %1 = load i32, ptr @zend_observer_fcall_op_array_extension, align 4
  %.not = icmp eq i32 %1, -1
  br i1 %.not, label %7, label %2

2:                                                ; preds = %0
  %3 = load i32, ptr getelementptr inbounds (%struct._zend_internal_function, ptr @xmlreader_open_fn, i64 0, i32 12), align 8
  %4 = add i32 %3, 1
  store i32 %4, ptr getelementptr inbounds (%struct._zend_internal_function, ptr @xmlreader_open_fn, i64 0, i32 12), align 8
  %5 = load i32, ptr getelementptr inbounds (%struct._zend_internal_function, ptr @xmlreader_xml_fn, i64 0, i32 12), align 8
  %6 = add i32 %5, 1
  store i32 %6, ptr getelementptr inbounds (%struct._zend_internal_function, ptr @xmlreader_xml_fn, i64 0, i32 12), align 8
  br label %7

7:                                                ; preds = %2, %0
  %8 = load ptr, ptr @prev_zend_post_startup_cb, align 8
  %.not2 = icmp eq ptr %8, null
  br i1 %.not2, label %11, label %9

9:                                                ; preds = %7
  %10 = tail call i32 %8() #11
  br label %11

11:                                               ; preds = %7, %9
  %.0 = phi i32 [ %10, %9 ], [ 0, %7 ]
  ret i32 %.0
}